; Function Attrs: nounwind uwtable
define hidden void @zim_EmptyIterator_key(ptr nocapture noundef readonly %0, ptr nocapture readnone %1) #0 {
  %3 = getelementptr inbounds i8, ptr %0, i64 44
  %4 = load i32, ptr %3, align 4
  %.not = icmp eq i32 %4, 0
  br i1 %.not, label %.critedge, label %5

5:                                                ; preds = %2
  tail call void @zend_wrong_parameters_none_error() #10
  %6 = load ptr, ptr getelementptr inbounds (%struct._zend_executor_globals, ptr @executor_globals, i64 0, i32 50), align 8
  %7 = icmp ne ptr %6, null
  tail call void @llvm.assume(i1 %7)
  br label %10

.critedge:                                        ; preds = %2
  %8 = load ptr, ptr @spl_ce_BadMethodCallException, align 8
  %9 = tail call ptr @zend_throw_exception(ptr noundef %8, ptr noundef nonnull @.str.20, i64 noundef 0) #10
  br label %10

10:                                               ; preds = %.critedge, %5
  ret void
}